(dp0
S'_AgentService:AgentInfo'
p1
(dp2
S'com.plexapp.agents.fanarttv'
p3
(lp4
(dp5
S'media_types'
p6
(lp7
S'Movie'
p8
asS'primary_provider'
p9
I00
sS'fallback_agent'
p10
NsS'contributes_to'
p11
(lp12
S'com.plexapp.agents.imdb'
p13
aS'com.plexapp.agents.themoviedb'
p14
asS'has_attribution'
p15
I01
sS'languages'
p16
(lp17
S'xn'
p18
asS'persist_stored_files'
p19
I01
sS'version'
p20
I0
sS'accepts_from'
p21
NsS'prefs'
p22
I01
sS'name'
p23
S'Fanart.tv'
p24
sa(dp25
S'media_types'
p26
(lp27
S'TV_Show'
p28
asS'primary_provider'
p29
I00
sS'fallback_agent'
p30
NsS'contributes_to'
p31
(lp32
S'com.plexapp.agents.thetvdb'
p33
aS'com.plexapp.agents.themoviedb'
p34
asg15
I01
sS'languages'
p35
(lp36
S'xn'
p37
asS'persist_stored_files'
p38
I01
sS'version'
p39
I0
sS'accepts_from'
p40
NsS'prefs'
p41
I01
sS'name'
p42
S'Fanart.tv'
p43
sa(dp44
S'media_types'
p45
(lp46
S'Artist'
p47
asS'primary_provider'
p48
I00
sS'fallback_agent'
p49
NsS'contributes_to'
p50
(lp51
S'com.plexapp.agents.lastfm'
p52
asg15
I01
sS'languages'
p53
(lp54
S'xn'
p55
asS'persist_stored_files'
p56
I01
sS'version'
p57
I0
sS'accepts_from'
p58
NsS'prefs'
p59
I01
sS'name'
p60
S'Fanart.tv'
p61
sa(dp62
S'media_types'
p63
(lp64
S'Album'
p65
asS'primary_provider'
p66
I00
sS'fallback_agent'
p67
NsS'contributes_to'
p68
(lp69
S'com.plexapp.agents.lastfm'
p70
asg15
I01
sS'languages'
p71
(lp72
S'xn'
p73
asS'persist_stored_files'
p74
I01
sS'version'
p75
I0
sS'accepts_from'
p76
NsS'prefs'
p77
I01
sS'name'
p78
S'Fanart.tv'
p79
sasS'com.plexapp.agents.none'
p80
(lp81
(dp82
S'media_types'
p83
(lp84
S'Movie'
p85
asS'primary_provider'
p86
I01
sS'fallback_agent'
p87
NsS'contributes_to'
p88
Nsg15
I00
sS'languages'
p89
(lp90
S'xn'
p91
asS'persist_stored_files'
p92
I01
sS'version'
p93
I0
sS'accepts_from'
p94
NsS'prefs'
p95
I00
sS'name'
p96
S'Personal Media'
p97
sa(dp98
S'media_types'
p99
(lp100
S'TV_Show'
p101
asS'primary_provider'
p102
I01
sS'fallback_agent'
p103
NsS'contributes_to'
p104
Nsg15
I00
sS'languages'
p105
(lp106
S'xn'
p107
asS'persist_stored_files'
p108
I01
sS'version'
p109
I0
sS'accepts_from'
p110
NsS'prefs'
p111
I00
sS'name'
p112
S'Personal Media Shows'
p113
sa(dp114
S'media_types'
p115
(lp116
S'Artist'
p117
asS'primary_provider'
p118
I01
sS'fallback_agent'
p119
NsS'contributes_to'
p120
Nsg15
I00
sS'languages'
p121
(lp122
S'xn'
p123
asS'persist_stored_files'
p124
I01
sS'version'
p125
I0
sS'accepts_from'
p126
NsS'prefs'
p127
I00
sS'name'
p128
S'Personal Media Artists'
p129
sa(dp130
S'media_types'
p131
(lp132
S'Album'
p133
asS'primary_provider'
p134
I01
sS'fallback_agent'
p135
NsS'contributes_to'
p136
Nsg15
I00
sS'languages'
p137
(lp138
S'xn'
p139
asS'persist_stored_files'
p140
I01
sS'version'
p141
I0
sS'accepts_from'
p142
NsS'prefs'
p143
I00
sS'name'
p144
S'Personal Media Albums'
p145
sa(dp146
S'media_types'
p147
(lp148
S'Photo'
p149
asS'primary_provider'
p150
I01
sS'fallback_agent'
p151
NsS'contributes_to'
p152
Nsg15
I00
sS'languages'
p153
(lp154
S'en'
p155
aS'ar'
p156
aS'bg'
p157
aS'ca'
p158
aS'cs'
p159
aS'cy'
p160
aS'da'
p161
aS'de'
p162
aS'el'
p163
aS'es'
p164
aS'et'
p165
aS'fa'
p166
aS'fi'
p167
aS'fr'
p168
aS'he'
p169
aS'hi'
p170
aS'hr'
p171
aS'ht'
p172
aS'hu'
p173
aS'id'
p174
aS'it'
p175
aS'ja'
p176
aS'ko'
p177
aS'lt'
p178
aS'lv'
p179
aS'ms'
p180
aS'mt'
p181
aS'nl'
p182
aS'no'
p183
aS'pl'
p184
aS'pt'
p185
aS'ro'
p186
aS'ru'
p187
aS'sk'
p188
aS'sv'
p189
aS'sl'
p190
aS'sr'
p191
aS'th'
p192
aS'tr'
p193
aS'uk'
p194
aS'ur'
p195
aS'vi'
p196
aS'zh'
p197
aS'xn'
p198
asS'persist_stored_files'
p199
I01
sS'version'
p200
I0
sS'accepts_from'
p201
NsS'prefs'
p202
I00
sS'name'
p203
S'Photos'
p204
sasS'com.plexapp.agents.opensubtitles'
p205
(lp206
(dp207
S'media_types'
p208
(lp209
S'Movie'
p210
asS'primary_provider'
p211
I00
sS'fallback_agent'
p212
NsS'contributes_to'
p213
(lp214
S'com.plexapp.agents.imdb'
p215
asg15
I00
sS'languages'
p216
(lp217
S'xn'
p218
asS'persist_stored_files'
p219
I01
sS'version'
p220
I0
sS'accepts_from'
p221
NsS'prefs'
p222
I01
sS'name'
p223
S'OpenSubtitles.org'
p224
sa(dp225
S'media_types'
p226
(lp227
S'TV_Show'
p228
asS'primary_provider'
p229
I00
sS'fallback_agent'
p230
NsS'contributes_to'
p231
(lp232
S'com.plexapp.agents.thetvdb'
p233
asg15
I00
sS'languages'
p234
(lp235
S'xn'
p236
asS'persist_stored_files'
p237
I01
sS'version'
p238
I0
sS'accepts_from'
p239
NsS'prefs'
p240
I01
sS'name'
p241
S'OpenSubtitles.org'
p242
sasS'com.plexapp.agents.imdb'
p243
(lp244
(dp245
S'media_types'
p246
(lp247
S'Movie'
p248
asS'primary_provider'
p249
I01
sS'fallback_agent'
p250
NsS'contributes_to'
p251
(lp252
S'com.plexapp.agents.themoviedb'
p253
asg15
I01
sS'languages'
p254
(lp255
S'en'
p256
aS'sv'
p257
aS'fr'
p258
aS'es'
p259
aS'nl'
p260
aS'de'
p261
aS'it'
p262
aS'da'
p263
aS'ar'
p264
aS'ca'
p265
aS'zh'
p266
aS'cs'
p267
aS'et'
p268
aS'fi'
p269
aS'el'
p270
aS'he'
p271
aS'hi'
p272
aS'hu'
p273
aS'id'
p274
aS'ja'
p275
aS'ko'
p276
aS'lv'
p277
aS'no'
p278
aS'fa'
p279
aS'pl'
p280
aS'pt'
p281
aS'ro'
p282
aS'ru'
p283
aS'sk'
p284
aS'th'
p285
aS'tr'
p286
aS'uk'
p287
aS'vi'
p288
asS'persist_stored_files'
p289
I01
sS'version'
p290
I0
sS'accepts_from'
p291
(lp292
S'com.plexapp.agents.localmedia'
p293
asS'prefs'
p294
I01
sS'name'
p295
S'Plex Movie (Legacy)'
p296
sasS'com.plexapp.agents.lyricfind'
p297
(lp298
(dp299
S'media_types'
p300
(lp301
S'Album'
p302
asS'primary_provider'
p303
I00
sS'fallback_agent'
p304
NsS'contributes_to'
p305
(lp306
S'com.plexapp.agents.lastfm'
p307
aS'tv.plex.agents.music'
p308
aS'org.musicbrainz.agents.music'
p309
asg15
I01
sS'languages'
p310
(lp311
S'xn'
p312
asS'persist_stored_files'
p313
I01
sS'version'
p314
I0
sS'accepts_from'
p315
NsS'prefs'
p316
I00
sS'name'
p317
S'LyricFind'
p318
sasS'com.plexapp.agents.thetvdb'
p319
(lp320
(dp321
S'media_types'
p322
(lp323
S'TV_Show'
p324
asS'primary_provider'
p325
I01
sS'fallback_agent'
p326
NsS'contributes_to'
p327
Nsg15
I01
sS'languages'
p328
(lp329
S'en'
p330
aS'fr'
p331
aS'zh'
p332
aS'sv'
p333
aS'no'
p334
aS'da'
p335
aS'fi'
p336
aS'nl'
p337
aS'de'
p338
aS'it'
p339
aS'es'
p340
aS'pl'
p341
aS'hu'
p342
aS'el'
p343
aS'tr'
p344
aS'ru'
p345
aS'he'
p346
aS'ja'
p347
aS'pt'
p348
aS'cs'
p349
aS'ko'
p350
aS'sl'
p351
aS'hr'
p352
asS'persist_stored_files'
p353
I01
sS'version'
p354
I0
sS'accepts_from'
p355
NsS'prefs'
p356
I01
sS'name'
p357
S'TheTVDB'
p358
sasS'com.plexapp.agents.plexthememusic'
p359
(lp360
(dp361
S'media_types'
p362
(lp363
S'TV_Show'
p364
asS'primary_provider'
p365
I00
sS'fallback_agent'
p366
NsS'contributes_to'
p367
(lp368
S'com.plexapp.agents.thetvdb'
p369
aS'com.plexapp.agents.thetvdbdvdorder'
p370
aS'com.plexapp.agents.themoviedb'
p371
asg15
I00
sS'languages'
p372
(lp373
S'xn'
p374
asS'persist_stored_files'
p375
I01
sS'version'
p376
I0
sS'accepts_from'
p377
NsS'prefs'
p378
I00
sS'name'
p379
S'Plex Theme Music'
p380
sasS'org.musicbrainz.agents.music'
p381
(lp382
(dp383
S'media_types'
p384
(lp385
S'Artist'
p386
asS'primary_provider'
p387
I01
sS'fallback_agent'
p388
NsS'contributes_to'
p389
Nsg15
I01
sS'languages'
p390
(lp391
S'en'
p392
aS'ar'
p393
aS'bg'
p394
aS'zh'
p395
aS'hr'
p396
aS'cs'
p397
aS'da'
p398
aS'nl'
p399
aS'fi'
p400
aS'fr'
p401
aS'de'
p402
aS'el'
p403
aS'hu'
p404
aS'id'
p405
aS'it'
p406
aS'ja'
p407
aS'ko'
p408
aS'nn'
p409
aS'pl'
p410
aS'pt'
p411
aS'ro'
p412
aS'ru'
p413
aS'sr'
p414
aS'sk'
p415
aS'es'
p416
aS'sv'
p417
aS'th'
p418
aS'tr'
p419
aS'vi'
p420
aS'xx'
p421
asS'persist_stored_files'
p422
I01
sS'version'
p423
I0
sS'accepts_from'
p424
NsS'prefs'
p425
I01
sS'name'
p426
S'Musicbrainz'
p427
sa(dp428
S'media_types'
p429
(lp430
S'Album'
p431
asS'primary_provider'
p432
I01
sS'fallback_agent'
p433
NsS'contributes_to'
p434
Nsg15
I01
sS'languages'
p435
g391
sS'persist_stored_files'
p436
I01
sS'version'
p437
I0
sS'accepts_from'
p438
NsS'prefs'
p439
I01
sS'name'
p440
S'Musicbrainz'
p441
sasS'com.plexapp.agents.themoviedb'
p442
(lp443
(dp444
S'media_types'
p445
(lp446
S'Movie'
p447
asS'primary_provider'
p448
I01
sS'fallback_agent'
p449
NsS'contributes_to'
p450
Nsg15
I01
sS'languages'
p451
(lp452
S'en'
p453
aS'cs'
p454
aS'da'
p455
aS'de'
p456
aS'el'
p457
aS'es'
p458
aS'fi'
p459
aS'fr'
p460
aS'he'
p461
aS'hr'
p462
aS'hu'
p463
aS'it'
p464
aS'lv'
p465
aS'lt'
p466
aS'nl'
p467
aS'no'
p468
aS'pl'
p469
aS'pt'
p470
aS'ru'
p471
aS'sk'
p472
aS'sv'
p473
aS'th'
p474
aS'tr'
p475
aS'vi'
p476
aS'zh'
p477
aS'ko'
p478
asS'persist_stored_files'
p479
I01
sS'version'
p480
I0
sS'accepts_from'
p481
(lp482
S'com.plexapp.agents.localmedia'
p483
asS'prefs'
p484
I01
sS'name'
p485
S'The Movie Database'
p486
sa(dp487
S'media_types'
p488
(lp489
S'TV_Show'
p490
asS'primary_provider'
p491
I01
sS'fallback_agent'
p492
NsS'contributes_to'
p493
(lp494
S'com.plexapp.agents.thetvdb'
p495
asg15
I01
sS'languages'
p496
g452
sS'persist_stored_files'
p497
I01
sS'version'
p498
I0
sS'accepts_from'
p499
(lp500
S'com.plexapp.agents.localmedia'
p501
aS'com.plexapp.agents.thetvdb'
p502
asS'prefs'
p503
I01
sS'name'
p504
S'The Movie Database'
p505
sasS'com.plexapp.agents.htbackdrops'
p506
(lp507
(dp508
S'media_types'
p509
(lp510
S'Artist'
p511
asS'primary_provider'
p512
I00
sS'fallback_agent'
p513
NsS'contributes_to'
p514
(lp515
S'com.plexapp.agents.lastfm'
p516
asg15
I01
sS'languages'
p517
(lp518
S'ab'
p519
aS'aa'
p520
aS'af'
p521
aS'ak'
p522
aS'sq'
p523
aS'am'
p524
aS'ar'
p525
aS'an'
p526
aS'hy'
p527
aS'as'
p528
aS'av'
p529
aS'ae'
p530
aS'ay'
p531
aS'az'
p532
aS'bm'
p533
aS'ba'
p534
aS'eu'
p535
aS'be'
p536
aS'bn'
p537
aS'bh'
p538
aS'bi'
p539
aS'bs'
p540
aS'pb'
p541
aS'br'
p542
aS'bg'
p543
aS'my'
p544
aS'ca'
p545
aS'ch'
p546
aS'ce'
p547
aS'ny'
p548
aS'zh'
p549
aS'cu'
p550
aS'cv'
p551
aS'kw'
p552
aS'co'
p553
aS'cr'
p554
aS'hr'
p555
aS'cs'
p556
aS'da'
p557
aS'dv'
p558
aS'nl'
p559
aS'dz'
p560
aS'en'
p561
aS'eo'
p562
aS'et'
p563
aS'ee'
p564
aS'fo'
p565
aS'fj'
p566
aS'fi'
p567
aS'fr'
p568
aS'fy'
p569
aS'ff'
p570
aS'gd'
p571
aS'gl'
p572
aS'lg'
p573
aS'ka'
p574
aS'de'
p575
aS'el'
p576
aS'gn'
p577
aS'gu'
p578
aS'ht'
p579
aS'ha'
p580
aS'he'
p581
aS'hz'
p582
aS'hi'
p583
aS'ho'
p584
aS'hu'
p585
aS'is'
p586
aS'io'
p587
aS'ig'
p588
aS'id'
p589
aS'ia'
p590
aS'ie'
p591
aS'iu'
p592
aS'ik'
p593
aS'ga'
p594
aS'it'
p595
aS'ja'
p596
aS'jv'
p597
aS'kl'
p598
aS'kn'
p599
aS'kr'
p600
aS'ks'
p601
aS'kk'
p602
aS'km'
p603
aS'ki'
p604
aS'rw'
p605
aS'ky'
p606
aS'kv'
p607
aS'kg'
p608
aS'ko'
p609
aS'kj'
p610
aS'ku'
p611
aS'lo'
p612
aS'la'
p613
aS'lv'
p614
aS'li'
p615
aS'ln'
p616
aS'lt'
p617
aS'lu'
p618
aS'lb'
p619
aS'mk'
p620
aS'mg'
p621
aS'ms'
p622
aS'ml'
p623
aS'mt'
p624
aS'gv'
p625
aS'mi'
p626
aS'mr'
p627
aS'mh'
p628
aS'mo'
p629
aS'mn'
p630
aS'na'
p631
aS'nv'
p632
aS'ng'
p633
aS'ne'
p634
aS'xn'
p635
aS'nd'
p636
aS'no'
p637
aS'nb'
p638
aS'nn'
p639
aS'oc'
p640
aS'oj'
p641
aS'or'
p642
aS'om'
p643
aS'os'
p644
aS'pi'
p645
aS'pa'
p646
aS'fa'
p647
aS'pl'
p648
aS'pt'
p649
aS'ps'
p650
aS'qu'
p651
aS'rm'
p652
aS'ro'
p653
aS'rn'
p654
aS'ru'
p655
aS'se'
p656
aS'sm'
p657
aS'sg'
p658
aS'sa'
p659
aS'sc'
p660
aS'sr'
p661
aS'sn'
p662
aS'ii'
p663
aS'sd'
p664
aS'si'
p665
aS'sk'
p666
aS'sl'
p667
aS'so'
p668
aS'st'
p669
aS'nr'
p670
aS'es'
p671
aS'su'
p672
aS'sw'
p673
aS'ss'
p674
aS'sv'
p675
aS'tl'
p676
aS'ty'
p677
aS'tg'
p678
aS'ta'
p679
aS'tt'
p680
aS'te'
p681
aS'th'
p682
aS'bo'
p683
aS'ti'
p684
aS'to'
p685
aS'ts'
p686
aS'tn'
p687
aS'tr'
p688
aS'tk'
p689
aS'tw'
p690
aS'ug'
p691
aS'uk'
p692
aS'ur'
p693
aS'uz'
p694
aS've'
p695
aS'vi'
p696
aS'vo'
p697
aS'wa'
p698
aS'cy'
p699
aS'wo'
p700
aS'xh'
p701
aS'yi'
p702
aS'yo'
p703
aS'za'
p704
aS'zu'
p705
asS'persist_stored_files'
p706
I01
sS'version'
p707
I0
sS'accepts_from'
p708
NsS'prefs'
p709
I00
sS'name'
p710
S'Home Theater Backdrops'
p711
sasS'com.plexapp.agents.movieposterdb'
p712
(lp713
(dp714
S'media_types'
p715
(lp716
S'Movie'
p717
asS'primary_provider'
p718
I00
sS'fallback_agent'
p719
NsS'contributes_to'
p720
(lp721
S'com.plexapp.agents.imdb'
p722
asg15
I01
sS'languages'
p723
(lp724
S'xn'
p725
asS'persist_stored_files'
p726
I01
sS'version'
p727
I0
sS'accepts_from'
p728
NsS'prefs'
p729
I00
sS'name'
p730
S'CineMaterial'
p731
sasS'com.plexapp.agents.localmedia'
p732
(lp733
(dp734
S'media_types'
p735
(lp736
S'Movie'
p737
asS'primary_provider'
p738
I00
sS'fallback_agent'
p739
NsS'contributes_to'
p740
(lp741
S'com.plexapp.agents.imdb'
p742
aS'com.plexapp.agents.none'
p743
asg15
I00
sS'languages'
p744
(lp745
S'xn'
p746
asS'persist_stored_files'
p747
I00
sS'version'
p748
I0
sS'accepts_from'
p749
NsS'prefs'
p750
I01
sS'name'
p751
S'Local Media Assets (Movies)'
p752
sa(dp753
S'media_types'
p754
(lp755
S'TV_Show'
p756
asS'primary_provider'
p757
I00
sS'fallback_agent'
p758
NsS'contributes_to'
p759
(lp760
S'com.plexapp.agents.thetvdb'
p761
aS'com.plexapp.agents.none'
p762
asg15
I00
sS'languages'
p763
(lp764
S'xn'
p765
asS'persist_stored_files'
p766
I00
sS'version'
p767
I0
sS'accepts_from'
p768
NsS'prefs'
p769
I01
sS'name'
p770
S'Local Media Assets (TV)'
p771
sa(dp772
S'media_types'
p773
(lp774
S'Artist'
p775
asS'primary_provider'
p776
I00
sS'fallback_agent'
p777
NsS'contributes_to'
p778
(lp779
S'com.plexapp.agents.discogs'
p780
aS'com.plexapp.agents.lastfm'
p781
aS'com.plexapp.agents.plexmusic'
p782
aS'com.plexapp.agents.none'
p783
aS'tv.plex.agents.music'
p784
aS'org.musicbrainz.agents.music'
p785
asg15
I00
sS'languages'
p786
(lp787
S'xn'
p788
asS'persist_stored_files'
p789
I00
sS'version'
p790
I0
sS'accepts_from'
p791
NsS'prefs'
p792
I01
sS'name'
p793
S'Local Media Assets (Artists)'
p794
sa(dp795
S'media_types'
p796
(lp797
S'Artist'
p798
asS'primary_provider'
p799
I00
sS'fallback_agent'
p800
NsS'contributes_to'
p801
(lp802
S'com.plexapp.agents.plexmusic'
p803
asg15
I00
sS'languages'
p804
g787
sS'persist_stored_files'
p805
I00
sS'version'
p806
I2
sS'accepts_from'
p807
NsS'prefs'
p808
I01
sS'name'
p809
S'Local Media Assets (Artists)'
p810
sa(dp811
S'media_types'
p812
(lp813
S'Album'
p814
asS'primary_provider'
p815
I00
sS'fallback_agent'
p816
NsS'contributes_to'
p817
(lp818
S'com.plexapp.agents.discogs'
p819
aS'com.plexapp.agents.lastfm'
p820
aS'com.plexapp.agents.plexmusic'
p821
aS'com.plexapp.agents.none'
p822
aS'tv.plex.agents.music'
p823
aS'org.musicbrainz.agents.music'
p824
asg15
I00
sS'languages'
p825
(lp826
S'xn'
p827
asS'persist_stored_files'
p828
I00
sS'version'
p829
I0
sS'accepts_from'
p830
NsS'prefs'
p831
I01
sS'name'
p832
S'Local Media Assets (Albums)'
p833
sasS'com.plexapp.agents.lastfm'
p834
(lp835
(dp836
S'media_types'
p837
(lp838
S'Artist'
p839
asS'primary_provider'
p840
I01
sS'fallback_agent'
p841
NsS'contributes_to'
p842
Nsg15
I01
sS'languages'
p843
(lp844
S'en'
p845
aS'sv'
p846
aS'fr'
p847
aS'es'
p848
aS'de'
p849
aS'pl'
p850
aS'it'
p851
aS'pt'
p852
aS'ja'
p853
aS'tr'
p854
aS'ru'
p855
aS'zh'
p856
asS'persist_stored_files'
p857
I01
sS'version'
p858
I0
sS'accepts_from'
p859
NsS'prefs'
p860
I01
sS'name'
p861
S'Last.fm'
p862
sa(dp863
S'media_types'
p864
(lp865
S'Album'
p866
asS'primary_provider'
p867
I01
sS'fallback_agent'
p868
NsS'contributes_to'
p869
Nsg15
I01
sS'languages'
p870
(lp871
S'en'
p872
aS'sv'
p873
aS'fr'
p874
aS'es'
p875
aS'de'
p876
aS'pl'
p877
aS'it'
p878
aS'pt'
p879
aS'ja'
p880
aS'tr'
p881
aS'ru'
p882
aS'zh'
p883
asS'persist_stored_files'
p884
I01
sS'version'
p885
I0
sS'accepts_from'
p886
NsS'prefs'
p887
I01
sS'name'
p888
S'Last.fm'
p889
sass.